target datalayout = "e-m:e-p270:32:32-p271:32:32-p272:64:64-i64:64-i128:128-f80:128-n8:16:32:64-S128"
target triple = "x86_64-pc-linux-gnu"

%"class.cv::Mat" = type { i32, i32, i32, i32, ptr, ptr, ptr, ptr, ptr, ptr, %"struct.cv::MatSize", %"struct.cv::MatStep" }
%"struct.cv::MatSize" = type { ptr }
%"struct.cv::MatStep" = type { ptr, [2 x i64] }
%"class.cv::Size_" = type { i32, i32 }
%"class.cv::Point_.23" = type { float, float }

; Function Attrs: inlinehint mustprogress nounwind uwtable
define linkonce_odr hidden void @_ZN2cv6Point_IfEC2Eff(ptr noundef nonnull align 4 dereferenceable(8) %0, float noundef %1, float noundef %2) unnamed_addr #8 comdat align 2 {
  %4 = alloca ptr, align 8
  %5 = alloca float, align 4
  %6 = alloca float, align 4
  store ptr %0, ptr %4, align 8, !tbaa !138
  store float %1, ptr %5, align 4, !tbaa !76
  store float %2, ptr %6, align 4, !tbaa !76
  %7 = load ptr, ptr %4, align 8
  %8 = getelementptr inbounds nuw %"class.cv::Point_.23", ptr %7, i32 0, i32 0
  %9 = load float, ptr %5, align 4, !tbaa !76
  store float %9, ptr %8, align 4, !tbaa !81
  %10 = getelementptr inbounds nuw %"class.cv::Point_.23", ptr %7, i32 0, i32 1
  %11 = load float, ptr %6, align 4, !tbaa !76
  store float %11, ptr %10, align 4, !tbaa !83
  ret void
}

; Function Attrs: inlinehint mustprogress nounwind uwtable
define internal noundef float @_ZN2cvL13saturate_castIfEET_f(float noundef %0) #8 {
  %2 = alloca float, align 4
  store float %0, ptr %2, align 4, !tbaa !76
  %3 = load float, ptr %2, align 4, !tbaa !76
  ret float %3
}

; Function Attrs: inlinehint mustprogress nounwind uwtable
define linkonce_odr dso_local noundef float @_ZSt4fabsf(float noundef %0) #8 comdat {
  %2 = alloca float, align 4
  store float %0, ptr %2, align 4, !tbaa !76
  %3 = load float, ptr %2, align 4, !tbaa !76
  %4 = call float @llvm.fabs.f32(float %3)
  ret float %4
}

; Function Attrs: inlinehint mustprogress nounwind uwtable
define internal noundef i32 @_ZL7cvIsNaNf(float noundef %0) #8 {
  %2 = alloca float, align 4
  store float %0, ptr %2, align 4, !tbaa !76
  %3 = load float, ptr %2, align 4, !tbaa !76
  %4 = call i1 @llvm.is.fpclass.f32(float %3, i32 3)
  %5 = zext i1 %4 to i32
  ret i32 %5
}

; Function Attrs: inlinehint mustprogress nounwind uwtable
define linkonce_odr hidden void @_ZN2cv5Size_IiEC2Eii(ptr noundef nonnull align 4 dereferenceable(8) %0, i32 noundef %1, i32 noundef %2) unnamed_addr #8 comdat align 2 {
  %4 = alloca ptr, align 8
  %5 = alloca i32, align 4
  %6 = alloca i32, align 4
  store ptr %0, ptr %4, align 8, !tbaa !39
  store i32 %1, ptr %5, align 4, !tbaa !13
  store i32 %2, ptr %6, align 4, !tbaa !13
  %7 = load ptr, ptr %4, align 8
  %8 = getelementptr inbounds nuw %"class.cv::Size_", ptr %7, i32 0, i32 0
  %9 = load i32, ptr %5, align 4, !tbaa !13
  store i32 %9, ptr %8, align 4, !tbaa !111
  %10 = getelementptr inbounds nuw %"class.cv::Size_", ptr %7, i32 0, i32 1
  %11 = load i32, ptr %6, align 4, !tbaa !13
  store i32 %11, ptr %10, align 4, !tbaa !113
  ret void
}

; Function Attrs: mustprogress nounwind uwtable
define linkonce_odr hidden noundef float @_ZNSt14numeric_limitsIfE9quiet_NaNEv() #2 comdat align 2 {
  ret float 0x7FF8000000000000
}

; Function Attrs: inlinehint mustprogress nounwind uwtable
define linkonce_odr hidden noundef nonnull align 4 dereferenceable(4) ptr @_ZN2cv3Mat2atIfEERT_ii(ptr noundef nonnull align 8 dereferenceable(96) %0, i32 noundef %1, i32 noundef %2) #8 comdat align 2 {
  %4 = alloca ptr, align 8
  %5 = alloca i32, align 4
  %6 = alloca i32, align 4
  store ptr %0, ptr %4, align 8, !tbaa !44
  store i32 %1, ptr %5, align 4, !tbaa !13
  store i32 %2, ptr %6, align 4, !tbaa !13
  %7 = load ptr, ptr %4, align 8
  %8 = getelementptr inbounds nuw %"class.cv::Mat", ptr %7, i32 0, i32 4
  %9 = load ptr, ptr %8, align 8, !tbaa !22
  %10 = getelementptr inbounds nuw %"class.cv::Mat", ptr %7, i32 0, i32 11
  %11 = getelementptr inbounds nuw %"struct.cv::MatStep", ptr %10, i32 0, i32 0
  %12 = load ptr, ptr %11, align 8, !tbaa !137
  %13 = getelementptr inbounds i64, ptr %12, i64 0
  %14 = load i64, ptr %13, align 8, !tbaa !97
  %15 = load i32, ptr %5, align 4, !tbaa !13
  %16 = sext i32 %15 to i64
  %17 = mul i64 %14, %16
  %18 = getelementptr inbounds nuw i8, ptr %9, i64 %17
  %19 = load i32, ptr %6, align 4, !tbaa !13
  %20 = sext i32 %19 to i64
  %21 = getelementptr inbounds float, ptr %18, i64 %20
  ret ptr %21
}

; Function Attrs: inlinehint mustprogress nounwind uwtable
define linkonce_odr dso_local noundef float @_ZSt4sqrtf(float noundef %0) #8 comdat {
  %2 = alloca float, align 4
  store float %0, ptr %2, align 4, !tbaa !76
  %3 = load float, ptr %2, align 4, !tbaa !76
  %4 = call float @sqrtf(float noundef %3) #4, !tbaa !13
  ret float %4
}

; Function Attrs: inlinehint mustprogress nounwind uwtable
define linkonce_odr hidden noundef double @_ZNK2cv6Point_IfE4ddotERKS1_(ptr noundef nonnull align 4 dereferenceable(8) %0, ptr noundef nonnull align 4 dereferenceable(8) %1) #8 comdat align 2 {
  %3 = alloca ptr, align 8
  %4 = alloca ptr, align 8
  store ptr %0, ptr %3, align 8, !tbaa !138
  store ptr %1, ptr %4, align 8, !tbaa !138
  %5 = load ptr, ptr %3, align 8
  %6 = getelementptr inbounds nuw %"class.cv::Point_.23", ptr %5, i32 0, i32 0
  %7 = load float, ptr %6, align 4, !tbaa !81
  %8 = fpext float %7 to double
  %9 = load ptr, ptr %4, align 8, !tbaa !138
  %10 = getelementptr inbounds nuw %"class.cv::Point_.23", ptr %9, i32 0, i32 0
  %11 = load float, ptr %10, align 4, !tbaa !81
  %12 = fpext float %11 to double
  %13 = getelementptr inbounds nuw %"class.cv::Point_.23", ptr %5, i32 0, i32 1
  %14 = load float, ptr %13, align 4, !tbaa !83
  %15 = fpext float %14 to double
  %16 = load ptr, ptr %4, align 8, !tbaa !138
  %17 = getelementptr inbounds nuw %"class.cv::Point_.23", ptr %16, i32 0, i32 1
  %18 = load float, ptr %17, align 4, !tbaa !83
  %19 = fpext float %18 to double
  %20 = fmul double %15, %19
  %21 = call double @llvm.fmuladd.f64(double %8, double %12, double %20)
  ret double %21
}

; Function Attrs: inlinehint mustprogress uwtable
define internal <2 x float> @_ZN2cvmiIfEENS_6Point_IT_EERKS3_S5_(ptr noundef nonnull align 4 dereferenceable(8) %0, ptr noundef nonnull align 4 dereferenceable(8) %1) #17 {
  %3 = alloca %"class.cv::Point_.23", align 4
  %4 = alloca ptr, align 8
  %5 = alloca ptr, align 8
  store ptr %0, ptr %4, align 8, !tbaa !138
  store ptr %1, ptr %5, align 8, !tbaa !138
  %6 = load ptr, ptr %4, align 8, !tbaa !138
  %7 = getelementptr inbounds nuw %"class.cv::Point_.23", ptr %6, i32 0, i32 0
  %8 = load float, ptr %7, align 4, !tbaa !81
  %9 = load ptr, ptr %5, align 8, !tbaa !138
  %10 = getelementptr inbounds nuw %"class.cv::Point_.23", ptr %9, i32 0, i32 0
  %11 = load float, ptr %10, align 4, !tbaa !81
  %12 = fsub float %8, %11
  %13 = call noundef float @_ZN2cvL13saturate_castIfEET_f(float noundef %12)
  %14 = load ptr, ptr %4, align 8, !tbaa !138
  %15 = getelementptr inbounds nuw %"class.cv::Point_.23", ptr %14, i32 0, i32 1
  %16 = load float, ptr %15, align 4, !tbaa !83
  %17 = load ptr, ptr %5, align 8, !tbaa !138
  %18 = getelementptr inbounds nuw %"class.cv::Point_.23", ptr %17, i32 0, i32 1
  %19 = load float, ptr %18, align 4, !tbaa !83
  %20 = fsub float %16, %19
  %21 = call noundef float @_ZN2cvL13saturate_castIfEET_f(float noundef %20)
  call void @_ZN2cv6Point_IfEC2Eff(ptr noundef nonnull align 4 dereferenceable(8) %3, float noundef %13, float noundef %21)
  %22 = load <2 x float>, ptr %3, align 4
  ret <2 x float> %22
}

; Function Attrs: inlinehint mustprogress uwtable
define linkonce_odr hidden noundef zeroext i1 @_Z13isFlowCorrectN2cv6Point_IfEE(<2 x float> %0) #17 comdat {
  %2 = alloca %"class.cv::Point_.23", align 4
  store <2 x float> %0, ptr %2, align 4
  %3 = getelementptr inbounds nuw %"class.cv::Point_.23", ptr %2, i32 0, i32 0
  %4 = load float, ptr %3, align 4, !tbaa !81
  %5 = call noundef i32 @_ZL7cvIsNaNf(float noundef %4)
  %6 = icmp ne i32 %5, 0
  br i1 %6, label %24, label %7

7:                                                ; preds = %1
  %8 = getelementptr inbounds nuw %"class.cv::Point_.23", ptr %2, i32 0, i32 1
  %9 = load float, ptr %8, align 4, !tbaa !83
  %10 = call noundef i32 @_ZL7cvIsNaNf(float noundef %9)
  %11 = icmp ne i32 %10, 0
  br i1 %11, label %24, label %12

12:                                               ; preds = %7
  %13 = getelementptr inbounds nuw %"class.cv::Point_.23", ptr %2, i32 0, i32 0
  %14 = load float, ptr %13, align 4, !tbaa !81
  %15 = call noundef float @_ZSt4fabsf(float noundef %14)
  %16 = fpext float %15 to double
  %17 = fcmp olt double %16, 1.000000e+09
  br i1 %17, label %18, label %24

18:                                               ; preds = %12
  %19 = getelementptr inbounds nuw %"class.cv::Point_.23", ptr %2, i32 0, i32 1
  %20 = load float, ptr %19, align 4, !tbaa !83
  %21 = call noundef float @_ZSt4fabsf(float noundef %20)
  %22 = fpext float %21 to double
  %23 = fcmp olt double %22, 1.000000e+09
  br label %24

24:                                               ; preds = %18, %12, %7, %1
  %25 = phi i1 [ false, %12 ], [ false, %7 ], [ false, %1 ], [ %23, %18 ]
  ret i1 %25
}

; Function Attrs: inlinehint mustprogress nounwind uwtable
define linkonce_odr hidden noundef nonnull align 4 dereferenceable(8) ptr @_ZNK2cv4Mat_INS_6Point_IfEEEclEii(ptr noundef nonnull align 8 dereferenceable(96) %0, i32 noundef %1, i32 noundef %2) #8 comdat align 2 {
  %4 = alloca ptr, align 8
  %5 = alloca i32, align 4
  %6 = alloca i32, align 4
  store ptr %0, ptr %4, align 8, !tbaa !36
  store i32 %1, ptr %5, align 4, !tbaa !13
  store i32 %2, ptr %6, align 4, !tbaa !13
  %7 = load ptr, ptr %4, align 8
  %8 = getelementptr inbounds nuw %"class.cv::Mat", ptr %7, i32 0, i32 4
  %9 = load ptr, ptr %8, align 8, !tbaa !22
  %10 = getelementptr inbounds nuw %"class.cv::Mat", ptr %7, i32 0, i32 11
  %11 = getelementptr inbounds nuw %"struct.cv::MatStep", ptr %10, i32 0, i32 0
  %12 = load ptr, ptr %11, align 8, !tbaa !137
  %13 = getelementptr inbounds i64, ptr %12, i64 0
  %14 = load i64, ptr %13, align 8, !tbaa !97
  %15 = load i32, ptr %5, align 4, !tbaa !13
  %16 = sext i32 %15 to i64
  %17 = mul i64 %14, %16
  %18 = getelementptr inbounds nuw i8, ptr %9, i64 %17
  %19 = load i32, ptr %6, align 4, !tbaa !13
  %20 = sext i32 %19 to i64
  %21 = getelementptr inbounds %"class.cv::Point_.23", ptr %18, i64 %20
  ret ptr %21
}

; Function Attrs: inlinehint mustprogress uwtable
define linkonce_odr hidden i64 @_ZNK2cv7MatSizeclEv(ptr noundef nonnull align 8 dereferenceable(8) %0) #9 comdat align 2 {
  %2 = alloca %"class.cv::Size_", align 4
  %3 = alloca ptr, align 8
  store ptr %0, ptr %3, align 8, !tbaa !41
  %4 = load ptr, ptr %3, align 8
  %5 = getelementptr inbounds nuw %"struct.cv::MatSize", ptr %4, i32 0, i32 0
  %6 = load ptr, ptr %5, align 8, !tbaa !43
  %7 = getelementptr inbounds i32, ptr %6, i64 1
  %8 = load i32, ptr %7, align 4, !tbaa !13
  %9 = getelementptr inbounds nuw %"struct.cv::MatSize", ptr %4, i32 0, i32 0
  %10 = load ptr, ptr %9, align 8, !tbaa !43
  %11 = getelementptr inbounds i32, ptr %10, i64 0
  %12 = load i32, ptr %11, align 4, !tbaa !13
  call void @_ZN2cv5Size_IiEC2Eii(ptr noundef nonnull align 4 dereferenceable(8) %2, i32 noundef %8, i32 noundef %12)
  %13 = load i64, ptr %2, align 4
  ret i64 %13
}

; Function Attrs: mustprogress uwtable
define internal void @_ZL13endpointErrorRKN2cv4Mat_INS_6Point_IfEEEES5_(ptr dead_on_unwind noalias writable sret(%"class.cv::Mat") align 8 %0, ptr noundef nonnull align 8 dereferenceable(96) %1, ptr noundef nonnull align 8 dereferenceable(96) %2) #10 personality ptr @__gxx_personality_v0 {
  %4 = alloca ptr, align 8
  %5 = alloca ptr, align 8
  %6 = alloca ptr, align 8
  %7 = alloca i1, align 1
  %8 = alloca %"class.cv::Size_", align 4
  %9 = alloca i32, align 4
  %10 = alloca i32, align 4
  %11 = alloca i32, align 4
  %12 = alloca %"class.cv::Point_.23", align 4
  %13 = alloca ptr, align 8
  %14 = alloca i32, align 4
  %15 = alloca %"class.cv::Point_.23", align 4
  %16 = alloca %"class.cv::Point_.23", align 4
  %17 = alloca %"class.cv::Point_.23", align 4
  %18 = alloca %"class.cv::Point_.23", align 4
  store ptr %0, ptr %4, align 8
  store ptr %1, ptr %5, align 8, !tbaa !36
  store ptr %2, ptr %6, align 8, !tbaa !36
  store i1 false, ptr %7, align 1
  %19 = load ptr, ptr %5, align 8, !tbaa !36
  %20 = getelementptr inbounds nuw %"class.cv::Mat", ptr %19, i32 0, i32 10
  %21 = call i64 @_ZNK2cv7MatSizeclEv(ptr noundef nonnull align 8 dereferenceable(8) %20)
  store i64 %21, ptr %8, align 4
  %22 = load i64, ptr %8, align 4
  call void @_ZN2cv3MatC1ENS_5Size_IiEEi(ptr noundef nonnull align 8 dereferenceable(96) %0, i64 %22, i32 noundef 5)
  call void @llvm.lifetime.start.p0(i64 4, ptr %9) #4
  store i32 0, ptr %9, align 4, !tbaa !13
  br label %23

23:                                               ; preds = %93, %3
  %24 = load i32, ptr %9, align 4, !tbaa !13
  %25 = load ptr, ptr %5, align 8, !tbaa !36
  %26 = getelementptr inbounds nuw %"class.cv::Mat", ptr %25, i32 0, i32 2
  %27 = load i32, ptr %26, align 8, !tbaa !73
  %28 = icmp slt i32 %24, %27
  br i1 %28, label %30, label %29

29:                                               ; preds = %23
  store i32 2, ptr %10, align 4
  call void @llvm.lifetime.end.p0(i64 4, ptr %9) #4
  br label %96

30:                                               ; preds = %23
  call void @llvm.lifetime.start.p0(i64 4, ptr %11) #4
  store i32 0, ptr %11, align 4, !tbaa !13
  br label %31

31:                                               ; preds = %87, %30
  %32 = load i32, ptr %11, align 4, !tbaa !13
  %33 = load ptr, ptr %5, align 8, !tbaa !36
  %34 = getelementptr inbounds nuw %"class.cv::Mat", ptr %33, i32 0, i32 3
  %35 = load i32, ptr %34, align 4, !tbaa !74
  %36 = icmp slt i32 %32, %35
  br i1 %36, label %38, label %37

37:                                               ; preds = %31
  store i32 5, ptr %10, align 4
  call void @llvm.lifetime.end.p0(i64 4, ptr %11) #4
  br label %92

38:                                               ; preds = %31
  call void @llvm.lifetime.start.p0(i64 8, ptr %12) #4
  %39 = load ptr, ptr %5, align 8, !tbaa !36
  %40 = load i32, ptr %9, align 4, !tbaa !13
  %41 = load i32, ptr %11, align 4, !tbaa !13
  %42 = invoke noundef nonnull align 4 dereferenceable(8) ptr @_ZNK2cv4Mat_INS_6Point_IfEEEclEii(ptr noundef nonnull align 8 dereferenceable(96) %39, i32 noundef %40, i32 noundef %41)
          to label %43 unwind label %68

43:                                               ; preds = %38
  call void @llvm.memcpy.p0.p0.i64(ptr align 4 %12, ptr align 4 %42, i64 8, i1 false), !tbaa.struct !75
  call void @llvm.lifetime.start.p0(i64 8, ptr %15) #4
  %44 = load ptr, ptr %6, align 8, !tbaa !36
  %45 = load i32, ptr %9, align 4, !tbaa !13
  %46 = load i32, ptr %11, align 4, !tbaa !13
  %47 = invoke noundef nonnull align 4 dereferenceable(8) ptr @_ZNK2cv4Mat_INS_6Point_IfEEEclEii(ptr noundef nonnull align 8 dereferenceable(96) %44, i32 noundef %45, i32 noundef %46)
          to label %48 unwind label %72

48:                                               ; preds = %43
  call void @llvm.memcpy.p0.p0.i64(ptr align 4 %15, ptr align 4 %47, i64 8, i1 false), !tbaa.struct !75
  call void @llvm.memcpy.p0.p0.i64(ptr align 4 %16, ptr align 4 %12, i64 8, i1 false), !tbaa.struct !75
  %49 = load <2 x float>, ptr %16, align 4
  %50 = invoke noundef zeroext i1 @_Z13isFlowCorrectN2cv6Point_IfEE(<2 x float> %49)
          to label %51 unwind label %72

51:                                               ; preds = %48
  br i1 %50, label %52, label %80

52:                                               ; preds = %51
  call void @llvm.memcpy.p0.p0.i64(ptr align 4 %17, ptr align 4 %15, i64 8, i1 false), !tbaa.struct !75
  %53 = load <2 x float>, ptr %17, align 4
  %54 = invoke noundef zeroext i1 @_Z13isFlowCorrectN2cv6Point_IfEE(<2 x float> %53)
          to label %55 unwind label %72

55:                                               ; preds = %52
  br i1 %54, label %56, label %80

56:                                               ; preds = %55
  call void @llvm.lifetime.start.p0(i64 8, ptr %18) #4
  %57 = invoke <2 x float> @_ZN2cvmiIfEENS_6Point_IT_EERKS3_S5_(ptr noundef nonnull align 4 dereferenceable(8) %12, ptr noundef nonnull align 4 dereferenceable(8) %15)
          to label %58 unwind label %76

58:                                               ; preds = %56
  store <2 x float> %57, ptr %18, align 4
  %59 = invoke noundef double @_ZNK2cv6Point_IfE4ddotERKS1_(ptr noundef nonnull align 4 dereferenceable(8) %18, ptr noundef nonnull align 4 dereferenceable(8) %18)
          to label %60 unwind label %76

60:                                               ; preds = %58
  %61 = fptrunc double %59 to float
  %62 = invoke noundef float @_ZSt4sqrtf(float noundef %61)
          to label %63 unwind label %76

63:                                               ; preds = %60
  %64 = load i32, ptr %9, align 4, !tbaa !13
  %65 = load i32, ptr %11, align 4, !tbaa !13
  %66 = invoke noundef nonnull align 4 dereferenceable(4) ptr @_ZN2cv3Mat2atIfEERT_ii(ptr noundef nonnull align 8 dereferenceable(96) %0, i32 noundef %64, i32 noundef %65)
          to label %67 unwind label %76

67:                                               ; preds = %63
  store float %62, ptr %66, align 4, !tbaa !76
  call void @llvm.lifetime.end.p0(i64 8, ptr %18) #4
  br label %86

68:                                               ; preds = %38
  %69 = landingpad { ptr, i32 }
          cleanup
  %70 = extractvalue { ptr, i32 } %69, 0
  store ptr %70, ptr %13, align 8
  %71 = extractvalue { ptr, i32 } %69, 1
  store i32 %71, ptr %14, align 4
  br label %91

72:                                               ; preds = %80, %52, %48, %43
  %73 = landingpad { ptr, i32 }
          cleanup
  %74 = extractvalue { ptr, i32 } %73, 0
  store ptr %74, ptr %13, align 8
  %75 = extractvalue { ptr, i32 } %73, 1
  store i32 %75, ptr %14, align 4
  br label %90

76:                                               ; preds = %63, %60, %58, %56
  %77 = landingpad { ptr, i32 }
          cleanup
  %78 = extractvalue { ptr, i32 } %77, 0
  store ptr %78, ptr %13, align 8
  %79 = extractvalue { ptr, i32 } %77, 1
  store i32 %79, ptr %14, align 4
  call void @llvm.lifetime.end.p0(i64 8, ptr %18) #4
  br label %90

80:                                               ; preds = %55, %51
  %81 = call noundef float @_ZNSt14numeric_limitsIfE9quiet_NaNEv() #4
  %82 = load i32, ptr %9, align 4, !tbaa !13
  %83 = load i32, ptr %11, align 4, !tbaa !13
  %84 = invoke noundef nonnull align 4 dereferenceable(4) ptr @_ZN2cv3Mat2atIfEERT_ii(ptr noundef nonnull align 8 dereferenceable(96) %0, i32 noundef %82, i32 noundef %83)
          to label %85 unwind label %72

85:                                               ; preds = %80
  store float %81, ptr %84, align 4, !tbaa !76
  br label %86

86:                                               ; preds = %85, %67
  call void @llvm.lifetime.end.p0(i64 8, ptr %15) #4
  call void @llvm.lifetime.end.p0(i64 8, ptr %12) #4
  br label %87

87:                                               ; preds = %86
  %88 = load i32, ptr %11, align 4, !tbaa !13
  %89 = add nsw i32 %88, 1
  store i32 %89, ptr %11, align 4, !tbaa !13
  br label %31, !llvm.loop !78

90:                                               ; preds = %76, %72
  call void @llvm.lifetime.end.p0(i64 8, ptr %15) #4
  br label %91

91:                                               ; preds = %90, %68
  call void @llvm.lifetime.end.p0(i64 8, ptr %12) #4
  call void @llvm.lifetime.end.p0(i64 4, ptr %11) #4
  call void @llvm.lifetime.end.p0(i64 4, ptr %9) #4
  call void @_ZN2cv3MatD1Ev(ptr noundef nonnull align 8 dereferenceable(96) %0) #4
  br label %100

92:                                               ; preds = %37
  br label %93

93:                                               ; preds = %92
  %94 = load i32, ptr %9, align 4, !tbaa !13
  %95 = add nsw i32 %94, 1
  store i32 %95, ptr %9, align 4, !tbaa !13
  br label %23, !llvm.loop !80

96:                                               ; preds = %29
  store i1 true, ptr %7, align 1
  store i32 1, ptr %10, align 4
  %97 = load i1, ptr %7, align 1
  br i1 %97, label %99, label %98

98:                                               ; preds = %96
  call void @_ZN2cv3MatD1Ev(ptr noundef nonnull align 8 dereferenceable(96) %0) #4
  br label %99

99:                                               ; preds = %98, %96
  ret void

100:                                              ; preds = %91
  %101 = load ptr, ptr %13, align 8
  %102 = load i32, ptr %14, align 4
  %103 = insertvalue { ptr, i32 } poison, ptr %101, 0
  %104 = insertvalue { ptr, i32 } %103, i32 %102, 1
  resume { ptr, i32 } %104
}