; Function Attrs: mustprogress norecurse uwtable
define internal fastcc void @_ZL13endpointErrorRKN2cv4Mat_INS_6Point_IfEEEES5_(ptr dead_on_unwind noalias nonnull writable align 8 %0, ptr noundef nonnull readonly align 8 captures(none) dereferenceable(96) %1, ptr noundef nonnull readonly align 8 captures(none) dereferenceable(96) %2) unnamed_addr #11 personality ptr @__gxx_personality_v0 {
  %4 = getelementptr inbounds nuw i8, ptr %1, i64 64
  %5 = load ptr, ptr %4, align 8, !tbaa !44
  %6 = getelementptr inbounds nuw i8, ptr %5, i64 4
  %7 = load i32, ptr %6, align 4, !tbaa !45
  %8 = load i32, ptr %5, align 4, !tbaa !45
  %.sroa.2.0.insert.ext.i = zext i32 %8 to i64
  %.sroa.2.0.insert.shift.i = shl nuw i64 %.sroa.2.0.insert.ext.i, 32
  %.sroa.0.0.insert.ext.i = zext i32 %7 to i64
  %.sroa.0.0.insert.insert.i = or disjoint i64 %.sroa.2.0.insert.shift.i, %.sroa.0.0.insert.ext.i
  tail call void @_ZN2cv3MatC1ENS_5Size_IiEEi(ptr noundef nonnull align 8 dereferenceable(96) %0, i64 %.sroa.0.0.insert.insert.i, i32 noundef 5)
  %9 = getelementptr inbounds nuw i8, ptr %1, i64 8
  %10 = load i32, ptr %9, align 8, !tbaa !110
  %11 = icmp sgt i32 %10, 0
  br i1 %11, label %.preheader.lr.ph, label %._crit_edge47

.preheader.lr.ph:                                 ; preds = %3
  %12 = getelementptr inbounds nuw i8, ptr %1, i64 12
  %13 = load i32, ptr %12, align 4, !tbaa !111
  %14 = icmp sgt i32 %13, 0
  %15 = getelementptr inbounds nuw i8, ptr %1, i64 16
  %16 = load ptr, ptr %15, align 8
  %17 = getelementptr inbounds nuw i8, ptr %2, i64 16
  %18 = load ptr, ptr %17, align 8
  %19 = getelementptr inbounds nuw i8, ptr %0, i64 16
  %20 = getelementptr inbounds nuw i8, ptr %0, i64 72
  br i1 %14, label %.preheader.lr.ph.split.us, label %._crit_edge47

.preheader.lr.ph.split.us:                        ; preds = %.preheader.lr.ph
  %21 = getelementptr inbounds nuw i8, ptr %2, i64 72
  %22 = load ptr, ptr %21, align 8
  %23 = getelementptr inbounds nuw i8, ptr %1, i64 72
  %24 = load ptr, ptr %23, align 8
  %25 = load i64, ptr %24, align 8, !tbaa !10
  %26 = load i64, ptr %22, align 8, !tbaa !10
  %wide.trip.count53 = zext nneg i32 %10 to i64
  %wide.trip.count = zext nneg i32 %13 to i64
  %27 = load ptr, ptr %19, align 8, !tbaa !43
  %28 = load ptr, ptr %20, align 8, !tbaa !112
  %29 = load i64, ptr %28, align 8, !tbaa !10
  br label %.preheader.us

.preheader.us:                                    ; preds = %._crit_edge.us, %.preheader.lr.ph.split.us
  %indvars.iv50 = phi i64 [ %indvars.iv.next51, %._crit_edge.us ], [ 0, %.preheader.lr.ph.split.us ]
  %30 = mul i64 %25, %indvars.iv50
  %31 = getelementptr inbounds nuw i8, ptr %16, i64 %30
  %32 = mul i64 %26, %indvars.iv50
  %33 = getelementptr inbounds nuw i8, ptr %18, i64 %32
  %34 = mul i64 %29, %indvars.iv50
  %35 = getelementptr inbounds nuw i8, ptr %27, i64 %34
  br label %36

36:                                               ; preds = %.preheader.us, %_Z13isFlowCorrectN2cv6Point_IfEE.exit.thread.us
  %indvars.iv = phi i64 [ 0, %.preheader.us ], [ %indvars.iv.next, %_Z13isFlowCorrectN2cv6Point_IfEE.exit.thread.us ]
  %37 = getelementptr inbounds nuw %"class.cv::Point_.23", ptr %31, i64 %indvars.iv
  %38 = load <2 x float>, ptr %37, align 4
  %39 = getelementptr inbounds nuw %"class.cv::Point_.23", ptr %33, i64 %indvars.iv
  %40 = load <2 x float>, ptr %39, align 4
  %.sroa.0.0.vec.extract.i.us = extractelement <2 x float> %38, i64 0
  %41 = fcmp ord float %.sroa.0.0.vec.extract.i.us, 0.000000e+00
  br i1 %41, label %42, label %_Z13isFlowCorrectN2cv6Point_IfEE.exit.thread.us

42:                                               ; preds = %36
  %.sroa.0.4.vec.extract.i.us = extractelement <2 x float> %38, i64 1
  %43 = tail call float @llvm.fabs.f32(float %.sroa.0.0.vec.extract.i.us)
  %44 = fcmp olt float %43, 1.000000e+09
  %45 = tail call float @llvm.fabs.f32(float %.sroa.0.4.vec.extract.i.us)
  %46 = fcmp olt float %45, 1.000000e+09
  %or.cond.us = and i1 %46, %44
  br i1 %or.cond.us, label %47, label %_Z13isFlowCorrectN2cv6Point_IfEE.exit.thread.us

47:                                               ; preds = %42
  %.sroa.0.0.vec.extract.i28.us = extractelement <2 x float> %40, i64 0
  %48 = fcmp ord float %.sroa.0.0.vec.extract.i28.us, 0.000000e+00
  br i1 %48, label %49, label %_Z13isFlowCorrectN2cv6Point_IfEE.exit.thread.us

49:                                               ; preds = %47
  %.sroa.0.4.vec.extract.i29.us = extractelement <2 x float> %40, i64 1
  %50 = tail call float @llvm.fabs.f32(float %.sroa.0.0.vec.extract.i28.us)
  %51 = fcmp olt float %50, 1.000000e+09
  %52 = tail call float @llvm.fabs.f32(float %.sroa.0.4.vec.extract.i29.us)
  %53 = fcmp olt float %52, 1.000000e+09
  %or.cond44.us = and i1 %53, %51
  br i1 %or.cond44.us, label %54, label %_Z13isFlowCorrectN2cv6Point_IfEE.exit.thread.us

54:                                               ; preds = %49
  %55 = fsub <2 x float> %38, %40
  %56 = extractelement <2 x float> %55, i64 0
  %57 = fsub float %.sroa.0.4.vec.extract.i.us, %.sroa.0.4.vec.extract.i29.us
  %58 = fpext float %56 to double
  %59 = fpext float %57 to double
  %60 = fmul double %59, %59
  %61 = tail call noundef double @llvm.fmuladd.f64(double %58, double %58, double %60)
  %62 = fptrunc double %61 to float
  %sqrt.us = tail call float @llvm.sqrt.f32(float %62)
  br label %_Z13isFlowCorrectN2cv6Point_IfEE.exit.thread.us

_Z13isFlowCorrectN2cv6Point_IfEE.exit.thread.us:  ; preds = %36, %42, %47, %49, %54
  %sqrt.us.sink = phi float [ %sqrt.us, %54 ], [ 0x7FF8000000000000, %49 ], [ 0x7FF8000000000000, %47 ], [ 0x7FF8000000000000, %42 ], [ 0x7FF8000000000000, %36 ]
  %63 = getelementptr inbounds nuw float, ptr %35, i64 %indvars.iv
  store float %sqrt.us.sink, ptr %63, align 4, !tbaa !113
  %indvars.iv.next = add nuw nsw i64 %indvars.iv, 1
  %exitcond.not = icmp eq i64 %indvars.iv.next, %wide.trip.count
  br i1 %exitcond.not, label %._crit_edge.us, label %36, !llvm.loop !115

._crit_edge.us:                                   ; preds = %_Z13isFlowCorrectN2cv6Point_IfEE.exit.thread.us
  %indvars.iv.next51 = add nuw nsw i64 %indvars.iv50, 1
  %exitcond54.not = icmp eq i64 %indvars.iv.next51, %wide.trip.count53
  br i1 %exitcond54.not, label %._crit_edge47, label %.preheader.us, !llvm.loop !117

._crit_edge47:                                    ; preds = %._crit_edge.us, %.preheader.lr.ph, %3
  ret void
}